target datalayout = "e-m:e-p270:32:32-p271:32:32-p272:64:64-i64:64-i128:128-f80:128-n8:16:32:64-S128"
target triple = "x86_64-pc-linux-gnu"

; Function Attrs: mustprogress nounwind uwtable
define hidden noundef zeroext i1 @_ZN4lean27is_sub_script_alnum_unicodeEj(i32 noundef %0) #0 {
  %2 = alloca i32, align 4
  store i32 %0, ptr %2, align 4, !tbaa !3
  %3 = load i32, ptr %2, align 4, !tbaa !3
  %4 = icmp ule i32 8319, %3
  br i1 %4, label %5, label %8

5:                                                ; preds = %1
  %6 = load i32, ptr %2, align 4, !tbaa !3
  %7 = icmp ule i32 %6, 8329
  br i1 %7, label %22, label %8

8:                                                ; preds = %5, %1
  %9 = load i32, ptr %2, align 4, !tbaa !3
  %10 = icmp ule i32 8336, %9
  br i1 %10, label %11, label %14

11:                                               ; preds = %8
  %12 = load i32, ptr %2, align 4, !tbaa !3
  %13 = icmp ule i32 %12, 8348
  br i1 %13, label %22, label %14

14:                                               ; preds = %11, %8
  %15 = load i32, ptr %2, align 4, !tbaa !3
  %16 = icmp ule i32 7522, %15
  br i1 %16, label %17, label %20

17:                                               ; preds = %14
  %18 = load i32, ptr %2, align 4, !tbaa !3
  %19 = icmp ule i32 %18, 7530
  br label %20

20:                                               ; preds = %17, %14
  %21 = phi i1 [ false, %14 ], [ %19, %17 ]
  br label %22

22:                                               ; preds = %20, %11, %5
  %23 = phi i1 [ true, %11 ], [ true, %5 ], [ %21, %20 ]
  ret i1 %23
}

; Function Attrs: mustprogress nounwind uwtable
define hidden noundef zeroext i1 @_ZN4lean22is_letter_like_unicodeEj(i32 noundef %0) #0 {
  %2 = alloca i32, align 4
  store i32 %0, ptr %2, align 4, !tbaa !3
  %3 = load i32, ptr %2, align 4, !tbaa !3
  %4 = icmp ule i32 945, %3
  br i1 %4, label %5, label %11

5:                                                ; preds = %1
  %6 = load i32, ptr %2, align 4, !tbaa !3
  %7 = icmp ule i32 %6, 969
  br i1 %7, label %8, label %11

8:                                                ; preds = %5
  %9 = load i32, ptr %2, align 4, !tbaa !3
  %10 = icmp ne i32 %9, 955
  br i1 %10, label %49, label %11

11:                                               ; preds = %8, %5, %1
  %12 = load i32, ptr %2, align 4, !tbaa !3
  %13 = icmp ule i32 913, %12
  br i1 %13, label %14, label %23

14:                                               ; preds = %11
  %15 = load i32, ptr %2, align 4, !tbaa !3
  %16 = icmp ule i32 %15, 937
  br i1 %16, label %17, label %23

17:                                               ; preds = %14
  %18 = load i32, ptr %2, align 4, !tbaa !3
  %19 = icmp ne i32 %18, 928
  br i1 %19, label %20, label %23

20:                                               ; preds = %17
  %21 = load i32, ptr %2, align 4, !tbaa !3
  %22 = icmp ne i32 %21, 931
  br i1 %22, label %49, label %23

23:                                               ; preds = %20, %17, %14, %11
  %24 = load i32, ptr %2, align 4, !tbaa !3
  %25 = icmp ule i32 970, %24
  br i1 %25, label %26, label %29

26:                                               ; preds = %23
  %27 = load i32, ptr %2, align 4, !tbaa !3
  %28 = icmp ule i32 %27, 1019
  br i1 %28, label %49, label %29

29:                                               ; preds = %26, %23
  %30 = load i32, ptr %2, align 4, !tbaa !3
  %31 = icmp ule i32 7936, %30
  br i1 %31, label %32, label %35

32:                                               ; preds = %29
  %33 = load i32, ptr %2, align 4, !tbaa !3
  %34 = icmp ule i32 %33, 8190
  br i1 %34, label %49, label %35

35:                                               ; preds = %32, %29
  %36 = load i32, ptr %2, align 4, !tbaa !3
  %37 = icmp ule i32 8448, %36
  br i1 %37, label %38, label %41

38:                                               ; preds = %35
  %39 = load i32, ptr %2, align 4, !tbaa !3
  %40 = icmp ule i32 %39, 8527
  br i1 %40, label %49, label %41

41:                                               ; preds = %38, %35
  %42 = load i32, ptr %2, align 4, !tbaa !3
  %43 = icmp ule i32 119964, %42
  br i1 %43, label %44, label %47

44:                                               ; preds = %41
  %45 = load i32, ptr %2, align 4, !tbaa !3
  %46 = icmp ule i32 %45, 120223
  br label %47

47:                                               ; preds = %44, %41
  %48 = phi i1 [ false, %41 ], [ %46, %44 ]
  br label %49

49:                                               ; preds = %47, %38, %32, %26, %20, %8
  %50 = phi i1 [ true, %38 ], [ true, %32 ], [ true, %26 ], [ true, %20 ], [ true, %8 ], [ %48, %47 ]
  ret i1 %50
}

; Function Attrs: mustprogress uwtable
define hidden noundef zeroext i1 @_ZN4lean10is_id_restEPKhS1_(ptr noundef %0, ptr noundef %1) #1 {
  %3 = alloca i1, align 1
  %4 = alloca ptr, align 8
  %5 = alloca ptr, align 8
  %6 = alloca i32, align 4
  store ptr %0, ptr %4, align 8, !tbaa !7
  store ptr %1, ptr %5, align 8, !tbaa !7
  %7 = load ptr, ptr %4, align 8, !tbaa !7
  %8 = load i8, ptr %7, align 1, !tbaa !10
  %9 = zext i8 %8 to i32
  %10 = call i32 @isalnum(i32 noundef %9) #16
  %11 = icmp ne i32 %10, 0
  br i1 %11, label %32, label %12

12:                                               ; preds = %2
  %13 = load ptr, ptr %4, align 8, !tbaa !7
  %14 = load i8, ptr %13, align 1, !tbaa !10
  %15 = zext i8 %14 to i32
  %16 = icmp eq i32 %15, 95
  br i1 %16, label %32, label %17

17:                                               ; preds = %12
  %18 = load ptr, ptr %4, align 8, !tbaa !7
  %19 = load i8, ptr %18, align 1, !tbaa !10
  %20 = zext i8 %19 to i32
  %21 = icmp eq i32 %20, 39
  br i1 %21, label %32, label %22

22:                                               ; preds = %17
  %23 = load ptr, ptr %4, align 8, !tbaa !7
  %24 = load i8, ptr %23, align 1, !tbaa !10
  %25 = zext i8 %24 to i32
  %26 = icmp eq i32 %25, 63
  br i1 %26, label %32, label %27

27:                                               ; preds = %22
  %28 = load ptr, ptr %4, align 8, !tbaa !7
  %29 = load i8, ptr %28, align 1, !tbaa !10
  %30 = zext i8 %29 to i32
  %31 = icmp eq i32 %30, 33
  br i1 %31, label %32, label %33

32:                                               ; preds = %27, %22, %17, %12, %2
  store i1 true, ptr %3, align 1
  br label %44

33:                                               ; preds = %27
  call void @llvm.lifetime.start.p0(i64 4, ptr %6) #17
  %34 = load ptr, ptr %4, align 8, !tbaa !7
  %35 = load ptr, ptr %5, align 8, !tbaa !7
  %36 = call noundef i32 @_ZN4lean15utf8_to_unicodeEPKhS1_(ptr noundef %34, ptr noundef %35)
  store i32 %36, ptr %6, align 4, !tbaa !3
  %37 = load i32, ptr %6, align 4, !tbaa !3
  %38 = call noundef zeroext i1 @_ZN4lean22is_letter_like_unicodeEj(i32 noundef %37)
  br i1 %38, label %42, label %39

39:                                               ; preds = %33
  %40 = load i32, ptr %6, align 4, !tbaa !3
  %41 = call noundef zeroext i1 @_ZN4lean27is_sub_script_alnum_unicodeEj(i32 noundef %40)
  br label %42

42:                                               ; preds = %39, %33
  %43 = phi i1 [ true, %33 ], [ %41, %39 ]
  store i1 %43, ptr %3, align 1
  call void @llvm.lifetime.end.p0(i64 4, ptr %6) #17
  br label %44

44:                                               ; preds = %42, %32
  %45 = load i1, ptr %3, align 1
  ret i1 %45
}