; Function Attrs: mustprogress uwtable
define hidden noundef zeroext i1 @_ZN4lean10is_id_restEPKhS1_(ptr noundef %0, ptr noundef %1) local_unnamed_addr #1 {
  %3 = load i8, ptr %0, align 1, !tbaa !3
  %4 = zext i8 %3 to i32
  %5 = tail call i32 @isalnum(i32 noundef %4) #18
  %.fr = freeze i32 %5
  %.not.not = icmp eq i32 %.fr, 0
  br i1 %.not.not, label %switch.early.test, label %_ZN4lean27is_sub_script_alnum_unicodeEj.exit

switch.early.test:                                ; preds = %2
  %switch.tableidx = add i8 %3, -33
  %6 = icmp ult i8 %switch.tableidx, 63
  br i1 %6, label %switch.hole_check, label %7

7:                                                ; preds = %switch.hole_check, %switch.early.test
  %8 = tail call noundef i32 @_ZN4lean15utf8_to_unicodeEPKhS1_(ptr noundef nonnull %0, ptr noundef %1)
  %9 = add i32 %8, -945
  %or.cond.i = icmp ult i32 %9, 25
  %10 = icmp ne i32 %8, 955
  %or.cond3.i = and i1 %10, %or.cond.i
  br i1 %or.cond3.i, label %_ZN4lean27is_sub_script_alnum_unicodeEj.exit, label %11

11:                                               ; preds = %7
  %12 = add i32 %8, -913
  %or.cond5.i = icmp ult i32 %12, 25
  br i1 %or.cond5.i, label %switch.early.test.i, label %13

switch.early.test.i:                              ; preds = %11
  switch i32 %8, label %_ZN4lean27is_sub_script_alnum_unicodeEj.exit [
    i32 931, label %13
    i32 928, label %13
  ]

13:                                               ; preds = %switch.early.test.i, %switch.early.test.i, %11
  %14 = add i32 %8, -970
  %or.cond11.i = icmp ult i32 %14, 50
  %15 = add i32 %8, -7936
  %or.cond13.i = icmp ult i32 %15, 255
  %or.cond30.i = or i1 %or.cond11.i, %or.cond13.i
  %16 = add i32 %8, -8448
  %or.cond15.i = icmp ult i32 %16, 80
  %or.cond31.i = or i1 %or.cond15.i, %or.cond30.i
  %17 = add i32 %8, -119964
  %18 = icmp ult i32 %17, 260
  %or.cond = or i1 %18, %or.cond31.i
  br i1 %or.cond, label %_ZN4lean27is_sub_script_alnum_unicodeEj.exit, label %19

19:                                               ; preds = %13
  %20 = add i32 %8, -8319
  %or.cond.i13 = icmp ult i32 %20, 11
  %21 = add i32 %8, -8336
  %or.cond3.i14 = icmp ult i32 %21, 13
  %or.cond9.i = or i1 %or.cond.i13, %or.cond3.i14
  br i1 %or.cond9.i, label %_ZN4lean27is_sub_script_alnum_unicodeEj.exit, label %22

22:                                               ; preds = %19
  %23 = add i32 %8, -7522
  %24 = icmp ult i32 %23, 9
  br label %_ZN4lean27is_sub_script_alnum_unicodeEj.exit

switch.hole_check:                                ; preds = %switch.early.test
  %switch.maskindex = zext nneg i8 %switch.tableidx to i64
  %switch.shifted = lshr i64 4611686019501129793, %switch.maskindex
  %switch.lobit = trunc i64 %switch.shifted to i1
  br i1 %switch.lobit, label %_ZN4lean27is_sub_script_alnum_unicodeEj.exit, label %7

_ZN4lean27is_sub_script_alnum_unicodeEj.exit:     ; preds = %switch.hole_check, %13, %switch.early.test.i, %7, %22, %19, %2
  %.0 = phi i1 [ true, %2 ], [ %24, %22 ], [ true, %19 ], [ true, %7 ], [ true, %switch.early.test.i ], [ true, %13 ], [ true, %switch.hole_check ]
  ret i1 %.0
}